; Function Attrs: null_pointer_is_valid sspstrong uwtable
define internal noundef i32 @dissect_aim_generic_evil(ptr noundef %0, ptr noundef %1, ptr noundef %2) #0 {
  %4 = load i32, ptr @hf_generic_evil_new_warn_level, align 4
  %5 = tail call ptr @proto_tree_add_item(ptr noundef %2, i32 noundef %4, ptr noundef %0, i32 noundef 0, i32 noundef 2, i32 noundef 0)
  %6 = tail call i32 @tvb_reported_length_remaining(ptr noundef %0, i32 noundef 0)
  %7 = icmp sgt i32 %6, 0
  br i1 %7, label %.lr.ph, label %._crit_edge

.lr.ph:                                           ; preds = %3, %.lr.ph
  %.09 = phi i32 [ %8, %.lr.ph ], [ 0, %3 ]
  %8 = tail call fastcc i32 @dissect_aim_userinfo(ptr noundef %0, ptr noundef %1, i32 noundef %.09, ptr noundef %2)
  %9 = tail call i32 @tvb_reported_length_remaining(ptr noundef %0, i32 noundef %8)
  %10 = icmp sgt i32 %9, 0
  br i1 %10, label %.lr.ph, label %._crit_edge, !llvm.loop !31

._crit_edge:                                      ; preds = %.lr.ph, %3
  %.0.lcssa = phi i32 [ 0, %3 ], [ %8, %.lr.ph ]
  ret i32 %.0.lcssa
}